ccopy_reg
_reconstructor
p0
(ctodocontainer
ToDoContainer
p1
c__builtin__
object
p2
Ntp3
Rp4
(dp5
S'todos'
p6
(lp7
g0
(ctodoitem
ToDoItem
p8
g2
Ntp9
Rp10
(dp11
S'description'
p12
S'butabuta'
p13
sS'title'
p14
S' neko'
p15
sS'finished'
p16
I00
sS'finisheddate'
p17
NsS'addeddate'
p18
cdatetime
datetime
p19
(S'\x07\xdf\x07\x1c\t3\x13\x0b\xc8\xa8'
p20
tp21
Rp22
sS'duedate'
p23
g19
(S'\x07\xdf\x07\x1c\t4\x00\x00\x00\x00'
p24
tp25
Rp26
sbag0
(g8
g2
Ntp27
Rp28
(dp29
g12
S'nekoneko'
p30
sg14
S'buta '
p31
sg16
I00
sg17
Nsg18
g19
(S'\x07\xdf\x07\x1c\t98\x00> '
p32
tp33
Rp34
sg23
g19
(S'\x07\xdf\x07\x1c\x0b\x1e\x00\x00\x00\x00'
p35
tp36
Rp37
sbasb.